target datalayout = "e-m:e-p270:32:32-p271:32:32-p272:64:64-i64:64-i128:128-f80:128-n8:16:32:64-S128"
target triple = "x86_64-pc-linux-gnu"

; Function Attrs: nounwind uwtable
define ptr @GetFileExtension(ptr noundef %0) #0 {
  %2 = alloca ptr, align 8
  %3 = alloca ptr, align 8
  %4 = alloca ptr, align 8
  %5 = alloca i32, align 4
  store ptr %0, ptr %3, align 8
  call void @llvm.lifetime.start.p0(i64 8, ptr %4) #16
  %6 = load ptr, ptr %3, align 8
  %7 = call ptr @strrchr(ptr noundef %6, i32 noundef 46) #17
  store ptr %7, ptr %4, align 8
  %8 = load ptr, ptr %4, align 8
  %9 = icmp ne ptr %8, null
  br i1 %9, label %10, label %14

10:                                               ; preds = %1
  %11 = load ptr, ptr %4, align 8
  %12 = load ptr, ptr %3, align 8
  %13 = icmp eq ptr %11, %12
  br i1 %13, label %14, label %15

14:                                               ; preds = %10, %1
  store ptr null, ptr %2, align 8
  store i32 1, ptr %5, align 4
  br label %17

15:                                               ; preds = %10
  %16 = load ptr, ptr %4, align 8
  store ptr %16, ptr %2, align 8
  store i32 1, ptr %5, align 4
  br label %17

17:                                               ; preds = %15, %14
  call void @llvm.lifetime.end.p0(i64 8, ptr %4) #16
  %18 = load ptr, ptr %2, align 8
  ret ptr %18
}

; Function Attrs: nounwind uwtable
define zeroext i1 @IsFileExtension(ptr noundef %0, ptr noundef %1) #0 {
  %3 = alloca ptr, align 8
  %4 = alloca ptr, align 8
  %5 = alloca i8, align 1
  %6 = alloca ptr, align 8
  %7 = alloca i32, align 4
  %8 = alloca ptr, align 8
  %9 = alloca [17 x i8], align 16
  %10 = alloca i32, align 4
  %11 = alloca i32, align 4
  store ptr %0, ptr %3, align 8
  store ptr %1, ptr %4, align 8
  call void @llvm.lifetime.start.p0(i64 1, ptr %5) #16
  store i8 0, ptr %5, align 1
  call void @llvm.lifetime.start.p0(i64 8, ptr %6) #16
  %12 = load ptr, ptr %3, align 8
  %13 = call ptr @GetFileExtension(ptr noundef %12)
  store ptr %13, ptr %6, align 8
  %14 = load ptr, ptr %6, align 8
  %15 = icmp ne ptr %14, null
  br i1 %15, label %16, label %45

16:                                               ; preds = %2
  call void @llvm.lifetime.start.p0(i64 4, ptr %7) #16
  store i32 0, ptr %7, align 4
  call void @llvm.lifetime.start.p0(i64 8, ptr %8) #16
  %17 = load ptr, ptr %4, align 8
  %18 = call ptr @TextSplit(ptr noundef %17, i8 noundef signext 59, ptr noundef %7)
  store ptr %18, ptr %8, align 8
  call void @llvm.lifetime.start.p0(i64 17, ptr %9) #16
  call void @llvm.memset.p0.i64(ptr align 16 %9, i8 0, i64 17, i1 false)
  %19 = getelementptr inbounds [17 x i8], ptr %9, i64 0, i64 0
  %20 = load ptr, ptr %6, align 8
  %21 = call ptr @TextToLower(ptr noundef %20)
  %22 = call ptr @strncpy(ptr noundef %19, ptr noundef %21, i64 noundef 16) #16
  call void @llvm.lifetime.start.p0(i64 4, ptr %10) #16
  store i32 0, ptr %10, align 4
  br label %23

23:                                               ; preds = %40, %16
  %24 = load i32, ptr %10, align 4
  %25 = load i32, ptr %7, align 4
  %26 = icmp slt i32 %24, %25
  br i1 %26, label %28, label %27

27:                                               ; preds = %23
  store i32 2, ptr %11, align 4
  br label %43

28:                                               ; preds = %23
  %29 = getelementptr inbounds [17 x i8], ptr %9, i64 0, i64 0
  %30 = load ptr, ptr %8, align 8
  %31 = load i32, ptr %10, align 4
  %32 = sext i32 %31 to i64
  %33 = getelementptr inbounds ptr, ptr %30, i64 %32
  %34 = load ptr, ptr %33, align 8
  %35 = call ptr @TextToLower(ptr noundef %34)
  %36 = call i32 @strcmp(ptr noundef %29, ptr noundef %35) #17
  %37 = icmp eq i32 %36, 0
  br i1 %37, label %38, label %39

38:                                               ; preds = %28
  store i8 1, ptr %5, align 1
  store i32 2, ptr %11, align 4
  br label %43

39:                                               ; preds = %28
  br label %40

40:                                               ; preds = %39
  %41 = load i32, ptr %10, align 4
  %42 = add nsw i32 %41, 1
  store i32 %42, ptr %10, align 4
  br label %23

43:                                               ; preds = %38, %27
  call void @llvm.lifetime.end.p0(i64 4, ptr %10) #16
  br label %44

44:                                               ; preds = %43
  call void @llvm.lifetime.end.p0(i64 17, ptr %9) #16
  call void @llvm.lifetime.end.p0(i64 8, ptr %8) #16
  call void @llvm.lifetime.end.p0(i64 4, ptr %7) #16
  br label %45

45:                                               ; preds = %44, %2
  %46 = load i8, ptr %5, align 1, !range !3, !noundef !4
  %47 = trunc i8 %46 to i1
  store i32 1, ptr %11, align 4
  call void @llvm.lifetime.end.p0(i64 8, ptr %6) #16
  call void @llvm.lifetime.end.p0(i64 1, ptr %5) #16
  ret i1 %47
}