; Function Attrs: nounwind uwtable
define noundef zeroext i1 @IsFileExtension(ptr noundef %0, ptr noundef %1) local_unnamed_addr #0 {
  %3 = alloca i32, align 4
  %4 = alloca [17 x i8], align 16
  %5 = tail call ptr @strrchr(ptr noundef nonnull readonly dereferenceable(1) %0, i32 noundef 46) #57
  %6 = icmp eq ptr %5, %0
  %.not10 = icmp eq ptr %5, null
  %.not = or i1 %6, %.not10
  br i1 %.not, label %23, label %7

7:                                                ; preds = %2
  call void @llvm.lifetime.start.p0(i64 4, ptr nonnull %3) #56
  store i32 0, ptr %3, align 4
  %8 = call ptr @TextSplit(ptr noundef %1, i8 noundef signext 59, ptr noundef nonnull %3) #56
  call void @llvm.lifetime.start.p0(i64 17, ptr nonnull %4) #56
  %9 = getelementptr inbounds nuw i8, ptr %4, i64 16
  store i8 0, ptr %9, align 16
  %10 = call ptr @TextToLower(ptr noundef nonnull %5) #56
  %11 = call ptr @strncpy(ptr noundef nonnull dereferenceable(1) %4, ptr noundef nonnull dereferenceable(1) %10, i64 noundef 16) #56
  %12 = load i32, ptr %3, align 4
  %13 = icmp sgt i32 %12, 0
  br i1 %13, label %.lr.ph, label %._crit_edge

14:                                               ; preds = %.lr.ph
  %indvars.iv.next = add nuw nsw i64 %indvars.iv, 1
  %15 = load i32, ptr %3, align 4
  %16 = sext i32 %15 to i64
  %17 = icmp slt i64 %indvars.iv.next, %16
  br i1 %17, label %.lr.ph, label %._crit_edge

.lr.ph:                                           ; preds = %7, %14
  %indvars.iv = phi i64 [ %indvars.iv.next, %14 ], [ 0, %7 ]
  %18 = getelementptr inbounds nuw ptr, ptr %8, i64 %indvars.iv
  %19 = load ptr, ptr %18, align 8
  %20 = call ptr @TextToLower(ptr noundef %19) #56
  %21 = call i32 @strcmp(ptr noundef nonnull dereferenceable(1) %4, ptr noundef nonnull dereferenceable(1) %20) #57
  %22 = icmp eq i32 %21, 0
  br i1 %22, label %._crit_edge, label %14

._crit_edge:                                      ; preds = %14, %.lr.ph, %7
  %.lcssa = phi i1 [ false, %7 ], [ %22, %.lr.ph ], [ %22, %14 ]
  call void @llvm.lifetime.end.p0(i64 17, ptr nonnull %4) #56
  call void @llvm.lifetime.end.p0(i64 4, ptr nonnull %3) #56
  br label %23

23:                                               ; preds = %._crit_edge, %2
  %.08 = phi i1 [ %.lcssa, %._crit_edge ], [ false, %2 ]
  ret i1 %.08
}